; ModuleID = '4/1031.c'
source_filename = "4/1031.c"
target datalayout = "e-m:e-p270:32:32-p271:32:32-p272:64:64-i64:64-f80:128-n8:16:32:64-S128"
target triple = "x86_64-pc-linux-gnu"

@.str = private unnamed_addr constant [5 x i8] c"%d%d\00", align 1
@.str.1 = private unnamed_addr constant [3 x i8] c"%d\00", align 1
@.str.2 = private unnamed_addr constant [4 x i8] c"\0A%d\00", align 1

; Function Attrs: noinline nounwind uwtable
define dso_local i32 @main() #0 {
  %1 = alloca i32, align 4
  %2 = alloca [101 x [101 x i32]], align 16
  %3 = alloca i32, align 4
  %4 = alloca i32, align 4
  %5 = alloca i32, align 4
  %6 = alloca i32, align 4
  store i32 0, i32* %1, align 4
  %7 = call i32 (i8*, ...) @__isoc99_scanf(i8* getelementptr inbounds ([5 x i8], [5 x i8]* @.str, i64 0, i64 0), i32* %5, i32* %6)
  store i32 1, i32* %3, align 4
  br label %8

8:                                                ; preds = %29, %0
  %9 = load i32, i32* %3, align 4
  %10 = load i32, i32* %5, align 4
  %11 = icmp sle i32 %9, %10
  br i1 %11, label %12, label %32

12:                                               ; preds = %8
  store i32 1, i32* %4, align 4
  br label %13

13:                                               ; preds = %25, %12
  %14 = load i32, i32* %4, align 4
  %15 = load i32, i32* %6, align 4
  %16 = icmp sle i32 %14, %15
  br i1 %16, label %17, label %28

17:                                               ; preds = %13
  %18 = load i32, i32* %3, align 4
  %19 = sext i32 %18 to i64
  %20 = getelementptr inbounds [101 x [101 x i32]], [101 x [101 x i32]]* %2, i64 0, i64 %19
  %21 = load i32, i32* %4, align 4
  %22 = sext i32 %21 to i64
  %23 = getelementptr inbounds [101 x i32], [101 x i32]* %20, i64 0, i64 %22
  %24 = call i32 (i8*, ...) @__isoc99_scanf(i8* getelementptr inbounds ([3 x i8], [3 x i8]* @.str.1, i64 0, i64 0), i32* %23)
  br label %25

25:                                               ; preds = %17
  %26 = load i32, i32* %4, align 4
  %27 = add nsw i32 %26, 1
  store i32 %27, i32* %4, align 4
  br label %13

28:                                               ; preds = %13
  br label %29

29:                                               ; preds = %28
  %30 = load i32, i32* %3, align 4
  %31 = add nsw i32 %30, 1
  store i32 %31, i32* %3, align 4
  br label %8

32:                                               ; preds = %8
  %33 = getelementptr inbounds [101 x [101 x i32]], [101 x [101 x i32]]* %2, i64 0, i64 1
  %34 = getelementptr inbounds [101 x i32], [101 x i32]* %33, i64 0, i64 1
  %35 = load i32, i32* %34, align 4
  %36 = call i32 (i8*, ...) @printf(i8* getelementptr inbounds ([3 x i8], [3 x i8]* @.str.1, i64 0, i64 0), i32 %35)
  store i32 3, i32* %3, align 4
  br label %37

37:                                               ; preds = %74, %32
  %38 = load i32, i32* %3, align 4
  %39 = load i32, i32* %6, align 4
  %40 = load i32, i32* %5, align 4
  %41 = add nsw i32 %39, %40
  %42 = icmp sle i32 %38, %41
  br i1 %42, label %43, label %77

43:                                               ; preds = %37
  store i32 1, i32* %4, align 4
  br label %44

44:                                               ; preds = %70, %43
  %45 = load i32, i32* %4, align 4
  %46 = load i32, i32* %3, align 4
  %47 = icmp slt i32 %45, %46
  br i1 %47, label %48, label %73

48:                                               ; preds = %44
  %49 = load i32, i32* %4, align 4
  %50 = load i32, i32* %5, align 4
  %51 = icmp sle i32 %49, %50
  br i1 %51, label %52, label %69

52:                                               ; preds = %48
  %53 = load i32, i32* %3, align 4
  %54 = load i32, i32* %4, align 4
  %55 = sub nsw i32 %53, %54
  %56 = load i32, i32* %6, align 4
  %57 = icmp sle i32 %55, %56
  br i1 %57, label %58, label %69

58:                                               ; preds = %52
  %59 = load i32, i32* %4, align 4
  %60 = sext i32 %59 to i64
  %61 = getelementptr inbounds [101 x [101 x i32]], [101 x [101 x i32]]* %2, i64 0, i64 %60
  %62 = load i32, i32* %3, align 4
  %63 = load i32, i32* %4, align 4
  %64 = sub nsw i32 %62, %63
  %65 = sext i32 %64 to i64
  %66 = getelementptr inbounds [101 x i32], [101 x i32]* %61, i64 0, i64 %65
  %67 = load i32, i32* %66, align 4
  %68 = call i32 (i8*, ...) @printf(i8* getelementptr inbounds ([4 x i8], [4 x i8]* @.str.2, i64 0, i64 0), i32 %67)
  br label %69

69:                                               ; preds = %58, %52, %48
  br label %70

70:                                               ; preds = %69
  %71 = load i32, i32* %4, align 4
  %72 = add nsw i32 %71, 1
  store i32 %72, i32* %4, align 4
  br label %44

73:                                               ; preds = %44
  br label %74

74:                                               ; preds = %73
  %75 = load i32, i32* %3, align 4
  %76 = add nsw i32 %75, 1
  store i32 %76, i32* %3, align 4
  br label %37

77:                                               ; preds = %37
  ret i32 0
}

declare dso_local i32 @__isoc99_scanf(i8*, ...) #1

declare dso_local i32 @printf(i8*, ...) #1


!llvm.module.flags = !{!0}
!llvm.ident = !{!1}

!0 = !{i32 1, !"wchar_size", i32 4}
!1 = !{!"clang version 10.0.0-4ubuntu1 "}
