; ModuleID = 'source-C-CXX/3/1031.c'
source_filename = "source-C-CXX/3/1031.c"
target datalayout = "e-m:e-p270:32:32-p271:32:32-p272:64:64-i64:64-f80:128-n8:16:32:64-S128"
target triple = "x86_64-pc-linux-gnu"

@.str = private unnamed_addr constant [5 x i8] c"%d%d\00", align 1
@.str.1 = private unnamed_addr constant [3 x i8] c"%d\00", align 1
@.str.2 = private unnamed_addr constant [4 x i8] c"\0A%d\00", align 1

; Function Attrs: nofree nounwind sspstrong uwtable
define dso_local i32 @main() local_unnamed_addr #0 {
  %1 = alloca [101 x [101 x i32]], align 16
  %2 = alloca i32, align 4
  %3 = alloca i32, align 4
  %4 = bitcast [101 x [101 x i32]]* %1 to i8*
  call void @llvm.lifetime.start.p0i8(i64 40804, i8* nonnull %4) #3
  %5 = bitcast i32* %2 to i8*
  call void @llvm.lifetime.start.p0i8(i64 4, i8* nonnull %5) #3
  %6 = bitcast i32* %3 to i8*
  call void @llvm.lifetime.start.p0i8(i64 4, i8* nonnull %6) #3
  %7 = call i32 (i8*, ...) @__isoc99_scanf(i8* getelementptr inbounds ([5 x i8], [5 x i8]* @.str, i64 0, i64 0), i32* nonnull %2, i32* nonnull %3)
  %8 = load i32, i32* %2, align 4, !tbaa !5
  %9 = icmp slt i32 %8, 1
  %10 = load i32, i32* %3, align 4
  %11 = icmp slt i32 %10, 1
  %12 = select i1 %9, i1 true, i1 %11
  br i1 %12, label %37, label %13

13:                                               ; preds = %0, %28
  %14 = phi i32 [ %29, %28 ], [ %8, %0 ]
  %15 = phi i32 [ %30, %28 ], [ %10, %0 ]
  %16 = phi i64 [ %31, %28 ], [ 1, %0 ]
  %17 = icmp slt i32 %15, 1
  br i1 %17, label %28, label %18

18:                                               ; preds = %13, %18
  %19 = phi i64 [ %22, %18 ], [ 1, %13 ]
  %20 = getelementptr inbounds [101 x [101 x i32]], [101 x [101 x i32]]* %1, i64 0, i64 %16, i64 %19
  %21 = call i32 (i8*, ...) @__isoc99_scanf(i8* getelementptr inbounds ([3 x i8], [3 x i8]* @.str.1, i64 0, i64 0), i32* nonnull %20)
  %22 = add nuw nsw i64 %19, 1
  %23 = load i32, i32* %3, align 4, !tbaa !5
  %24 = sext i32 %23 to i64
  %25 = icmp slt i64 %19, %24
  br i1 %25, label %18, label %26, !llvm.loop !9

26:                                               ; preds = %18
  %27 = load i32, i32* %2, align 4, !tbaa !5
  br label %28

28:                                               ; preds = %26, %13
  %29 = phi i32 [ %27, %26 ], [ %14, %13 ]
  %30 = phi i32 [ %23, %26 ], [ %15, %13 ]
  %31 = add nuw nsw i64 %16, 1
  %32 = sext i32 %29 to i64
  %33 = icmp slt i64 %16, %32
  br i1 %33, label %13, label %34, !llvm.loop !11

34:                                               ; preds = %28
  %35 = getelementptr inbounds [101 x [101 x i32]], [101 x [101 x i32]]* %1, i64 0, i64 1, i64 1
  %36 = load i32, i32* %35, align 8, !tbaa !5
  br label %37

37:                                               ; preds = %34, %0
  %38 = phi i32 [ %36, %34 ], [ undef, %0 ]
  %39 = call i32 (i8*, ...) @printf(i8* nonnull dereferenceable(1) getelementptr inbounds ([3 x i8], [3 x i8]* @.str.1, i64 0, i64 0), i32 %38)
  %40 = load i32, i32* %3, align 4, !tbaa !5
  %41 = load i32, i32* %2, align 4, !tbaa !5
  %42 = add nsw i32 %41, %40
  %43 = icmp slt i32 %42, 3
  br i1 %43, label %73, label %44

44:                                               ; preds = %37, %66
  %45 = phi i32 [ %69, %66 ], [ %41, %37 ]
  %46 = phi i64 [ %67, %66 ], [ 3, %37 ]
  br label %47

47:                                               ; preds = %64, %44
  %48 = phi i32 [ %45, %44 ], [ %65, %64 ]
  %49 = phi i64 [ 1, %44 ], [ %62, %64 ]
  %50 = sext i32 %48 to i64
  %51 = icmp sgt i64 %49, %50
  br i1 %51, label %61, label %52

52:                                               ; preds = %47
  %53 = sub nsw i64 %46, %49
  %54 = load i32, i32* %3, align 4, !tbaa !5
  %55 = sext i32 %54 to i64
  %56 = icmp sgt i64 %53, %55
  br i1 %56, label %61, label %57

57:                                               ; preds = %52
  %58 = getelementptr inbounds [101 x [101 x i32]], [101 x [101 x i32]]* %1, i64 0, i64 %49, i64 %53
  %59 = load i32, i32* %58, align 4, !tbaa !5
  %60 = call i32 (i8*, ...) @printf(i8* nonnull dereferenceable(1) getelementptr inbounds ([4 x i8], [4 x i8]* @.str.2, i64 0, i64 0), i32 %59)
  br label %61

61:                                               ; preds = %47, %52, %57
  %62 = add nuw nsw i64 %49, 1
  %63 = icmp eq i64 %62, %46
  br i1 %63, label %66, label %64, !llvm.loop !13

64:                                               ; preds = %61
  %65 = load i32, i32* %2, align 4, !tbaa !5
  br label %47

66:                                               ; preds = %61
  %67 = add nuw nsw i64 %46, 1
  %68 = load i32, i32* %3, align 4, !tbaa !5
  %69 = load i32, i32* %2, align 4, !tbaa !5
  %70 = add nsw i32 %69, %68
  %71 = sext i32 %70 to i64
  %72 = icmp slt i64 %46, %71
  br i1 %72, label %44, label %73, !llvm.loop !14

73:                                               ; preds = %66, %37
  call void @llvm.lifetime.end.p0i8(i64 4, i8* nonnull %6) #3
  call void @llvm.lifetime.end.p0i8(i64 4, i8* nonnull %5) #3
  call void @llvm.lifetime.end.p0i8(i64 40804, i8* nonnull %4) #3
  ret i32 0
}

; Function Attrs: argmemonly mustprogress nofree nosync nounwind willreturn
declare void @llvm.lifetime.start.p0i8(i64 immarg, i8* nocapture) #1

; Function Attrs: nofree nounwind
declare noundef i32 @__isoc99_scanf(i8* nocapture noundef readonly, ...) local_unnamed_addr #2

; Function Attrs: nofree nounwind
declare noundef i32 @printf(i8* nocapture noundef readonly, ...) local_unnamed_addr #2

; Function Attrs: argmemonly mustprogress nofree nosync nounwind willreturn
declare void @llvm.lifetime.end.p0i8(i64 immarg, i8* nocapture) #1


!llvm.module.flags = !{!0, !1, !2, !3}
!llvm.ident = !{!4}

!0 = !{i32 1, !"wchar_size", i32 4}
!1 = !{i32 7, !"PIC Level", i32 2}
!2 = !{i32 7, !"PIE Level", i32 2}
!3 = !{i32 7, !"uwtable", i32 1}
!4 = !{!"clang version 13.0.0"}
!5 = !{!6, !6, i64 0}
!6 = !{!"int", !7, i64 0}
!7 = !{!"omnipotent char", !8, i64 0}
!8 = !{!"Simple C/C++ TBAA"}
!9 = distinct !{!9, !10}
!10 = !{!"llvm.loop.mustprogress"}
!11 = distinct !{!11, !10, !12}
!12 = !{!"llvm.loop.unswitch.partial.disable"}
!13 = distinct !{!13, !10}
!14 = distinct !{!14, !10}
